; ModuleID = '42/36.c'
source_filename = "42/36.c"
target datalayout = "e-m:e-p270:32:32-p271:32:32-p272:64:64-i64:64-f80:128-n8:16:32:64-S128"
target triple = "x86_64-pc-linux-gnu"

@.str = private unnamed_addr constant [3 x i8] c"%d\00", align 1
@.str.1 = private unnamed_addr constant [4 x i8] c" %d\00", align 1

; Function Attrs: noinline nounwind uwtable
define dso_local void @main() #0 {
  %1 = alloca i64, align 8
  %2 = alloca i64, align 8
  %3 = alloca i64, align 8
  %4 = alloca i64, align 8
  %5 = alloca i64, align 8
  %6 = alloca i64, align 8
  %7 = alloca i64, align 8
  %8 = alloca i64, align 8
  %9 = alloca i64, align 8
  %10 = alloca i64, align 8
  %11 = alloca i64, align 8
  %12 = alloca i64, align 8
  %13 = alloca i64, align 8
  %14 = alloca i64, align 8
  %15 = alloca i64, align 8
  %16 = alloca [100001 x i64], align 16
  store i64 0, i64* %2, align 8
  store i64 0, i64* %3, align 8
  store i64 0, i64* %4, align 8
  %17 = call i32 (i8*, ...) @__isoc99_scanf(i8* getelementptr inbounds ([3 x i8], [3 x i8]* @.str, i64 0, i64 0), i64* %8)
  store i64 0, i64* %6, align 8
  br label %18

18:                                               ; preds = %27, %0
  %19 = load i64, i64* %6, align 8
  %20 = load i64, i64* %8, align 8
  %21 = sub nsw i64 %20, 1
  %22 = icmp sle i64 %19, %21
  br i1 %22, label %23, label %30

23:                                               ; preds = %18
  %24 = load i64, i64* %6, align 8
  %25 = getelementptr inbounds [100001 x i64], [100001 x i64]* %16, i64 0, i64 %24
  %26 = call i32 (i8*, ...) @__isoc99_scanf(i8* getelementptr inbounds ([3 x i8], [3 x i8]* @.str, i64 0, i64 0), i64* %25)
  br label %27

27:                                               ; preds = %23
  %28 = load i64, i64* %6, align 8
  %29 = add nsw i64 %28, 1
  store i64 %29, i64* %6, align 8
  br label %18

30:                                               ; preds = %18
  %31 = call i32 (i8*, ...) @__isoc99_scanf(i8* getelementptr inbounds ([3 x i8], [3 x i8]* @.str, i64 0, i64 0), i64* %9)
  %32 = load i64, i64* %9, align 8
  %33 = load i64, i64* %8, align 8
  %34 = add nsw i64 %33, 1
  %35 = getelementptr inbounds [100001 x i64], [100001 x i64]* %16, i64 0, i64 %34
  store i64 %32, i64* %35, align 8
  %36 = load i64, i64* %8, align 8
  %37 = getelementptr inbounds [100001 x i64], [100001 x i64]* %16, i64 0, i64 %36
  store i64 %32, i64* %37, align 8
  store i64 0, i64* %4, align 8
  store i64 0, i64* %14, align 8
  store i64 0, i64* %15, align 8
  store i64 1, i64* %10, align 8
  store i64 0, i64* %13, align 8
  br label %38

38:                                               ; preds = %104, %30
  %39 = load i64, i64* %13, align 8
  %40 = icmp slt i64 %39, 2500
  br i1 %40, label %41, label %105

41:                                               ; preds = %38
  %42 = load i64, i64* %13, align 8
  %43 = add nsw i64 %42, 1
  store i64 %43, i64* %13, align 8
  store i64 0, i64* %6, align 8
  br label %44

44:                                               ; preds = %78, %41
  %45 = load i64, i64* %6, align 8
  %46 = load i64, i64* %8, align 8
  %47 = sub nsw i64 %46, 1
  %48 = icmp slt i64 %45, %47
  br i1 %48, label %49, label %79

49:                                               ; preds = %44
  %50 = load i64, i64* %6, align 8
  %51 = getelementptr inbounds [100001 x i64], [100001 x i64]* %16, i64 0, i64 %50
  %52 = load i64, i64* %51, align 8
  %53 = load i64, i64* %9, align 8
  %54 = icmp eq i64 %52, %53
  br i1 %54, label %55, label %75

55:                                               ; preds = %49
  %56 = load i64, i64* %6, align 8
  store i64 %56, i64* %7, align 8
  br label %57

57:                                               ; preds = %69, %55
  %58 = load i64, i64* %7, align 8
  %59 = load i64, i64* %8, align 8
  %60 = sub nsw i64 %59, 1
  %61 = icmp sle i64 %58, %60
  br i1 %61, label %62, label %72

62:                                               ; preds = %57
  %63 = load i64, i64* %7, align 8
  %64 = add nsw i64 %63, 1
  %65 = getelementptr inbounds [100001 x i64], [100001 x i64]* %16, i64 0, i64 %64
  %66 = load i64, i64* %65, align 8
  %67 = load i64, i64* %7, align 8
  %68 = getelementptr inbounds [100001 x i64], [100001 x i64]* %16, i64 0, i64 %67
  store i64 %66, i64* %68, align 8
  br label %69

69:                                               ; preds = %62
  %70 = load i64, i64* %7, align 8
  %71 = add nsw i64 %70, 1
  store i64 %71, i64* %7, align 8
  br label %57

72:                                               ; preds = %57
  %73 = load i64, i64* %6, align 8
  %74 = add nsw i64 %73, 1
  store i64 %74, i64* %6, align 8
  br label %78

75:                                               ; preds = %49
  %76 = load i64, i64* %6, align 8
  %77 = add nsw i64 %76, 1
  store i64 %77, i64* %6, align 8
  br label %78

78:                                               ; preds = %75, %72
  br label %44

79:                                               ; preds = %44
  br label %80

80:                                               ; preds = %99, %79
  %81 = load i64, i64* %14, align 8
  %82 = load i64, i64* %8, align 8
  %83 = sub nsw i64 %82, 1
  %84 = icmp slt i64 %81, %83
  br i1 %84, label %85, label %100

85:                                               ; preds = %80
  %86 = load i64, i64* %14, align 8
  %87 = getelementptr inbounds [100001 x i64], [100001 x i64]* %16, i64 0, i64 %86
  %88 = load i64, i64* %87, align 8
  %89 = load i64, i64* %9, align 8
  %90 = icmp eq i64 %88, %89
  br i1 %90, label %91, label %96

91:                                               ; preds = %85
  %92 = load i64, i64* %15, align 8
  %93 = add nsw i64 %92, 1
  store i64 %93, i64* %15, align 8
  %94 = load i64, i64* %14, align 8
  %95 = add nsw i64 %94, 1
  store i64 %95, i64* %14, align 8
  br label %99

96:                                               ; preds = %85
  %97 = load i64, i64* %14, align 8
  %98 = add nsw i64 %97, 1
  store i64 %98, i64* %14, align 8
  br label %99

99:                                               ; preds = %96, %91
  br label %80

100:                                              ; preds = %80
  %101 = load i64, i64* %15, align 8
  %102 = icmp eq i64 %101, 0
  br i1 %102, label %103, label %104

103:                                              ; preds = %100
  br label %105

104:                                              ; preds = %100
  br label %38

105:                                              ; preds = %103, %38
  store i64 0, i64* %3, align 8
  %106 = load i64, i64* %3, align 8
  %107 = getelementptr inbounds [100001 x i64], [100001 x i64]* %16, i64 0, i64 %106
  %108 = load i64, i64* %107, align 8
  %109 = call i32 (i8*, ...) @printf(i8* getelementptr inbounds ([3 x i8], [3 x i8]* @.str, i64 0, i64 0), i64 %108)
  %110 = load i64, i64* %3, align 8
  %111 = add nsw i64 %110, 1
  store i64 %111, i64* %3, align 8
  br label %112

112:                                              ; preds = %124, %105
  %113 = load i64, i64* %3, align 8
  %114 = getelementptr inbounds [100001 x i64], [100001 x i64]* %16, i64 0, i64 %113
  %115 = load i64, i64* %114, align 8
  %116 = load i64, i64* %9, align 8
  %117 = icmp ne i64 %115, %116
  br i1 %117, label %118, label %122

118:                                              ; preds = %112
  %119 = load i64, i64* %3, align 8
  %120 = load i64, i64* %8, align 8
  %121 = icmp slt i64 %119, %120
  br label %122

122:                                              ; preds = %118, %112
  %123 = phi i1 [ false, %112 ], [ %121, %118 ]
  br i1 %123, label %124, label %131

124:                                              ; preds = %122
  %125 = load i64, i64* %3, align 8
  %126 = getelementptr inbounds [100001 x i64], [100001 x i64]* %16, i64 0, i64 %125
  %127 = load i64, i64* %126, align 8
  %128 = call i32 (i8*, ...) @printf(i8* getelementptr inbounds ([4 x i8], [4 x i8]* @.str.1, i64 0, i64 0), i64 %127)
  %129 = load i64, i64* %3, align 8
  %130 = add nsw i64 %129, 1
  store i64 %130, i64* %3, align 8
  br label %112

131:                                              ; preds = %122
  ret void
}

declare dso_local i32 @__isoc99_scanf(i8*, ...) #1

declare dso_local i32 @printf(i8*, ...) #1


!llvm.module.flags = !{!0}
!llvm.ident = !{!1}

!0 = !{i32 1, !"wchar_size", i32 4}
!1 = !{!"clang version 10.0.0-4ubuntu1 "}
